; Function Attrs: mustprogress nounwind uwtable
define internal fastcc void @_ZN12_GLOBAL__N_111StmtPrinter29VisitSYCLUniqueStableNameExprEPN5clang24SYCLUniqueStableNameExprE(ptr noundef nonnull align 8 dereferenceable(80) %0, ptr noundef readonly captures(none) %1) unnamed_addr #0 align 2 {
  %3 = alloca %"class.clang::QualType", align 8
  %4 = alloca %"class.llvm::Twine", align 8
  %5 = load ptr, ptr %0, align 8
  %6 = getelementptr inbounds nuw i8, ptr %5, i64 24
  %7 = load ptr, ptr %6, align 8
  %8 = getelementptr inbounds nuw i8, ptr %5, i64 32
  %9 = load ptr, ptr %8, align 8
  %10 = ptrtoint ptr %7 to i64
  %11 = ptrtoint ptr %9 to i64
  %12 = sub i64 %10, %11
  %13 = icmp ult i64 %12, 34
  br i1 %13, label %14, label %16

14:                                               ; preds = %2
  %15 = tail call noundef nonnull align 8 dereferenceable(48) ptr @_ZN4llvm11raw_ostream5writeEPKcm(ptr noundef nonnull align 8 dereferenceable(48) %5, ptr noundef nonnull @.str.35, i64 noundef 34) #19
  br label %_ZN4llvm11raw_ostreamlsEPKc.exit

16:                                               ; preds = %2
  tail call void @llvm.memcpy.p0.p0.i64(ptr noundef nonnull align 1 dereferenceable(34) %9, ptr noundef nonnull align 1 dereferenceable(34) @.str.35, i64 34, i1 false)
  %17 = load ptr, ptr %8, align 8
  %18 = getelementptr inbounds nuw i8, ptr %17, i64 34
  store ptr %18, ptr %8, align 8
  br label %_ZN4llvm11raw_ostreamlsEPKc.exit

_ZN4llvm11raw_ostreamlsEPKc.exit:                 ; preds = %14, %16
  %19 = getelementptr inbounds nuw i8, ptr %1, i64 32
  %20 = load ptr, ptr %19, align 8
  %.sroa.0.0.copyload.i = load i64, ptr %20, align 8
  store i64 %.sroa.0.0.copyload.i, ptr %3, align 8
  %21 = load ptr, ptr %0, align 8
  %22 = getelementptr inbounds nuw i8, ptr %0, i64 24
  %23 = getelementptr inbounds nuw i8, ptr %4, i64 32
  store i8 1, ptr %23, align 8
  %24 = getelementptr inbounds nuw i8, ptr %4, i64 33
  store i8 1, ptr %24, align 1
  call void @_ZNK5clang8QualType5printERN4llvm11raw_ostreamERKNS_14PrintingPolicyERKNS1_5TwineEj(ptr noundef nonnull align 8 dereferenceable(8) %3, ptr noundef nonnull align 8 dereferenceable(48) %21, ptr noundef nonnull align 8 dereferenceable(16) %22, ptr noundef nonnull align 8 dereferenceable(34) %4, i32 noundef 0) #19
  %25 = load ptr, ptr %0, align 8
  %26 = getelementptr inbounds nuw i8, ptr %25, i64 24
  %27 = load ptr, ptr %26, align 8
  %28 = getelementptr inbounds nuw i8, ptr %25, i64 32
  %29 = load ptr, ptr %28, align 8
  %30 = icmp eq ptr %27, %29
  br i1 %30, label %31, label %33

31:                                               ; preds = %_ZN4llvm11raw_ostreamlsEPKc.exit
  %32 = call noundef nonnull align 8 dereferenceable(48) ptr @_ZN4llvm11raw_ostream5writeEPKcm(ptr noundef nonnull align 8 dereferenceable(48) %25, ptr noundef nonnull @.str.2, i64 noundef 1) #19
  br label %_ZN4llvm11raw_ostreamlsEPKc.exit4

33:                                               ; preds = %_ZN4llvm11raw_ostreamlsEPKc.exit
  store i8 41, ptr %29, align 1
  %34 = load ptr, ptr %28, align 8
  %35 = getelementptr inbounds nuw i8, ptr %34, i64 1
  store ptr %35, ptr %28, align 8
  br label %_ZN4llvm11raw_ostreamlsEPKc.exit4

_ZN4llvm11raw_ostreamlsEPKc.exit4:                ; preds = %31, %33
  ret void
}